target datalayout = "e-m:e-p270:32:32-p271:32:32-p272:64:64-i64:64-i128:128-f80:128-n8:16:32:64-S128"
target triple = "x86_64-pc-linux-gnu"

%struct.ForEachState = type { ptr, i32 }
%union.ListCell = type { ptr }
%struct.List = type { i32, i32, i32, ptr, [0 x %union.ListCell] }
%struct.Expr = type { i32 }
%struct.TargetEntry = type { %struct.Expr, ptr, i16, ptr, i32, i32, i16, i8 }
%struct.Param = type { %struct.Expr, i32, i32, i32, i32, i32, i32 }

; Function Attrs: nounwind uwtable
define internal ptr @generate_subquery_params(ptr noundef %0, ptr noundef %1, ptr noundef %2) #0 {
  %4 = alloca ptr, align 8
  %5 = alloca ptr, align 8
  %6 = alloca ptr, align 8
  %7 = alloca ptr, align 8
  %8 = alloca ptr, align 8
  %9 = alloca ptr, align 8
  %10 = alloca %struct.ForEachState, align 8
  %11 = alloca i32, align 4
  %12 = alloca ptr, align 8
  %13 = alloca ptr, align 8
  store ptr %0, ptr %4, align 8
  store ptr %1, ptr %5, align 8
  store ptr %2, ptr %6, align 8
  call void @llvm.lifetime.start.p0(i64 8, ptr %7) #8
  call void @llvm.lifetime.start.p0(i64 8, ptr %8) #8
  call void @llvm.lifetime.start.p0(i64 8, ptr %9) #8
  store ptr null, ptr %8, align 8
  store ptr null, ptr %7, align 8
  call void @llvm.lifetime.start.p0(i64 16, ptr %10) #8
  %14 = getelementptr inbounds nuw %struct.ForEachState, ptr %10, i32 0, i32 0
  %15 = load ptr, ptr %5, align 8
  store ptr %15, ptr %14, align 8
  %16 = getelementptr inbounds nuw %struct.ForEachState, ptr %10, i32 0, i32 1
  store i32 0, ptr %16, align 8
  %17 = getelementptr i8, ptr %10, i64 12
  call void @llvm.memset.p0.i64(ptr align 4 %17, i8 0, i64 4, i1 false)
  br label %18

18:                                               ; preds = %78, %3
  %19 = getelementptr inbounds nuw %struct.ForEachState, ptr %10, i32 0, i32 0
  %20 = load ptr, ptr %19, align 8
  %21 = icmp ne ptr %20, null
  br i1 %21, label %22, label %39

22:                                               ; preds = %18
  %23 = getelementptr inbounds nuw %struct.ForEachState, ptr %10, i32 0, i32 1
  %24 = load i32, ptr %23, align 8
  %25 = getelementptr inbounds nuw %struct.ForEachState, ptr %10, i32 0, i32 0
  %26 = load ptr, ptr %25, align 8
  %27 = getelementptr inbounds nuw %struct.List, ptr %26, i32 0, i32 1
  %28 = load i32, ptr %27, align 4
  %29 = icmp slt i32 %24, %28
  br i1 %29, label %30, label %39

30:                                               ; preds = %22
  %31 = getelementptr inbounds nuw %struct.ForEachState, ptr %10, i32 0, i32 0
  %32 = load ptr, ptr %31, align 8
  %33 = getelementptr inbounds nuw %struct.List, ptr %32, i32 0, i32 3
  %34 = load ptr, ptr %33, align 8
  %35 = getelementptr inbounds nuw %struct.ForEachState, ptr %10, i32 0, i32 1
  %36 = load i32, ptr %35, align 8
  %37 = sext i32 %36 to i64
  %38 = getelementptr inbounds %union.ListCell, ptr %34, i64 %37
  store ptr %38, ptr %9, align 8
  br label %40

39:                                               ; preds = %22, %18
  store ptr null, ptr %9, align 8
  br label %40

40:                                               ; preds = %39, %30
  %41 = phi i32 [ 1, %30 ], [ 0, %39 ]
  %42 = icmp ne i32 %41, 0
  br i1 %42, label %44, label %43

43:                                               ; preds = %40
  store i32 2, ptr %11, align 4
  call void @llvm.lifetime.end.p0(i64 16, ptr %10) #8
  br label %82

44:                                               ; preds = %40
  call void @llvm.lifetime.start.p0(i64 8, ptr %12) #8
  %45 = load ptr, ptr %9, align 8
  %46 = load ptr, ptr %45, align 8
  store ptr %46, ptr %12, align 8
  call void @llvm.lifetime.start.p0(i64 8, ptr %13) #8
  %47 = load ptr, ptr %12, align 8
  %48 = getelementptr inbounds nuw %struct.TargetEntry, ptr %47, i32 0, i32 7
  %49 = load i8, ptr %48, align 2, !range !4, !noundef !5
  %50 = trunc i8 %49 to i1
  br i1 %50, label %51, label %52

51:                                               ; preds = %44
  store i32 4, ptr %11, align 4
  br label %75

52:                                               ; preds = %44
  %53 = load ptr, ptr %4, align 8
  %54 = load ptr, ptr %12, align 8
  %55 = getelementptr inbounds nuw %struct.TargetEntry, ptr %54, i32 0, i32 1
  %56 = load ptr, ptr %55, align 8
  %57 = call i32 @exprType(ptr noundef %56)
  %58 = load ptr, ptr %12, align 8
  %59 = getelementptr inbounds nuw %struct.TargetEntry, ptr %58, i32 0, i32 1
  %60 = load ptr, ptr %59, align 8
  %61 = call i32 @exprTypmod(ptr noundef %60)
  %62 = load ptr, ptr %12, align 8
  %63 = getelementptr inbounds nuw %struct.TargetEntry, ptr %62, i32 0, i32 1
  %64 = load ptr, ptr %63, align 8
  %65 = call i32 @exprCollation(ptr noundef %64)
  %66 = call ptr @generate_new_exec_param(ptr noundef %53, i32 noundef %57, i32 noundef %61, i32 noundef %65)
  store ptr %66, ptr %13, align 8
  %67 = load ptr, ptr %7, align 8
  %68 = load ptr, ptr %13, align 8
  %69 = call ptr @lappend(ptr noundef %67, ptr noundef %68)
  store ptr %69, ptr %7, align 8
  %70 = load ptr, ptr %8, align 8
  %71 = load ptr, ptr %13, align 8
  %72 = getelementptr inbounds nuw %struct.Param, ptr %71, i32 0, i32 2
  %73 = load i32, ptr %72, align 4
  %74 = call ptr @lappend_int(ptr noundef %70, i32 noundef %73)
  store ptr %74, ptr %8, align 8
  store i32 0, ptr %11, align 4
  br label %75

75:                                               ; preds = %52, %51
  call void @llvm.lifetime.end.p0(i64 8, ptr %13) #8
  call void @llvm.lifetime.end.p0(i64 8, ptr %12) #8
  %76 = load i32, ptr %11, align 4
  switch i32 %76, label %86 [
    i32 0, label %77
    i32 4, label %78
  ]

77:                                               ; preds = %75
  br label %78

78:                                               ; preds = %77, %75
  %79 = getelementptr inbounds nuw %struct.ForEachState, ptr %10, i32 0, i32 1
  %80 = load i32, ptr %79, align 8
  %81 = add i32 %80, 1
  store i32 %81, ptr %79, align 8
  br label %18, !llvm.loop !33

82:                                               ; preds = %43
  %83 = load ptr, ptr %8, align 8
  %84 = load ptr, ptr %6, align 8
  store ptr %83, ptr %84, align 8
  %85 = load ptr, ptr %7, align 8
  store i32 1, ptr %11, align 4
  call void @llvm.lifetime.end.p0(i64 8, ptr %9) #8
  call void @llvm.lifetime.end.p0(i64 8, ptr %8) #8
  call void @llvm.lifetime.end.p0(i64 8, ptr %7) #8
  ret ptr %85

86:                                               ; preds = %75
  unreachable
}