; Function Attrs: nounwind uwtable
define internal fastcc ptr @generate_subquery_params(ptr noundef %0, ptr noundef readonly captures(address_is_null) %1, ptr noundef writeonly captures(none) %2) unnamed_addr #0 {
  %4 = getelementptr inbounds nuw i8, ptr %1, i64 4
  %.not = icmp eq ptr %1, null
  br i1 %.not, label %._crit_edge, label %.lr.ph

.lr.ph:                                           ; preds = %3
  %5 = getelementptr inbounds nuw i8, ptr %1, i64 16
  %6 = load i32, ptr %4, align 4
  %7 = icmp sgt i32 %6, 0
  br i1 %7, label %.lr.ph38, label %._crit_edge

._crit_edge:                                      ; preds = %28, %.lr.ph, %3
  %.018.lcssa = phi ptr [ null, %3 ], [ null, %.lr.ph ], [ %.119, %28 ]
  %.0.lcssa = phi ptr [ null, %3 ], [ null, %.lr.ph ], [ %.1, %28 ]
  store ptr %.018.lcssa, ptr %2, align 8
  ret ptr %.0.lcssa

.lr.ph38:                                         ; preds = %.lr.ph, %28
  %8 = phi i32 [ %29, %28 ], [ %6, %.lr.ph ]
  %indvars.iv = phi i64 [ %indvars.iv.next, %28 ], [ 0, %.lr.ph ]
  %.0182636 = phi ptr [ %.119, %28 ], [ null, %.lr.ph ]
  %.02735 = phi ptr [ %.1, %28 ], [ null, %.lr.ph ]
  %9 = load ptr, ptr %5, align 8
  %10 = getelementptr inbounds nuw %union.ListCell, ptr %9, i64 %indvars.iv
  %11 = load ptr, ptr %10, align 8
  %12 = getelementptr inbounds nuw i8, ptr %11, i64 42
  %13 = load i8, ptr %12, align 2, !range !4, !noundef !5
  %14 = trunc nuw i8 %13 to i1
  br i1 %14, label %28, label %15

15:                                               ; preds = %.lr.ph38
  %16 = getelementptr inbounds nuw i8, ptr %11, i64 8
  %17 = load ptr, ptr %16, align 8
  %18 = tail call i32 @exprType(ptr noundef %17) #10
  %19 = load ptr, ptr %16, align 8
  %20 = tail call i32 @exprTypmod(ptr noundef %19) #10
  %21 = load ptr, ptr %16, align 8
  %22 = tail call i32 @exprCollation(ptr noundef %21) #10
  %23 = tail call ptr @generate_new_exec_param(ptr noundef %0, i32 noundef %18, i32 noundef %20, i32 noundef %22) #10
  %24 = tail call ptr @lappend(ptr noundef %.02735, ptr noundef %23) #10
  %25 = getelementptr inbounds nuw i8, ptr %23, i64 8
  %26 = load i32, ptr %25, align 4
  %27 = tail call ptr @lappend_int(ptr noundef %.0182636, i32 noundef %26) #10
  %.pre = load i32, ptr %4, align 4
  br label %28

28:                                               ; preds = %.lr.ph38, %15
  %29 = phi i32 [ %.pre, %15 ], [ %8, %.lr.ph38 ]
  %.119 = phi ptr [ %27, %15 ], [ %.0182636, %.lr.ph38 ]
  %.1 = phi ptr [ %24, %15 ], [ %.02735, %.lr.ph38 ]
  %indvars.iv.next = add nuw nsw i64 %indvars.iv, 1
  %30 = sext i32 %29 to i64
  %31 = icmp slt i64 %indvars.iv.next, %30
  br i1 %31, label %.lr.ph38, label %._crit_edge
}